(i__main__
Indexer
p0
(dp1
S'_Indexer__inv_index'
p2
ccollections
defaultdict
p3
(c__builtin__
set
p4
tp5
Rp6
S'origin'
p7
g4
((lp8
S'/Users/zhanglistar/Code/quickcd/.git/logs/refs/remotes'
p9
aS'/Users/zhanglistar/Code/quickcd/.git/refs/remotes'
p10
atp11
Rp12
sS'logs'
p13
g4
((lp14
S'/Users/zhanglistar/Code/quickcd/.git'
p15
atp16
Rp17
sS'hooks'
p18
g4
((lp19
S'/Users/zhanglistar/Code/quickcd/.git'
p20
atp21
Rp22
sS'refs'
p23
g4
((lp24
S'/Users/zhanglistar/Code/quickcd/.git/logs'
p25
aS'/Users/zhanglistar/Code/quickcd/.git'
p26
atp27
Rp28
sS'd4'
p29
g4
((lp30
S'/Users/zhanglistar/Code/quickcd/.git/objects'
p31
atp32
Rp33
sS'heads'
p34
g4
((lp35
S'/Users/zhanglistar/Code/quickcd/.git/logs/refs'
p36
aS'/Users/zhanglistar/Code/quickcd/.git/refs'
p37
atp38
Rp39
sS'22'
p40
g4
((lp41
S'/Users/zhanglistar/Code/quickcd/.git/objects'
p42
atp43
Rp44
sS'28'
p45
g4
((lp46
S'/Users/zhanglistar/Code/quickcd/.git/objects'
p47
atp48
Rp49
sS'43'
p50
g4
((lp51
S'/Users/zhanglistar/Code/quickcd/.git/objects'
p52
atp53
Rp54
sS'.git'
p55
g4
((lp56
S'/Users/zhanglistar/Code/quickcd'
p57
atp58
Rp59
sS'tags'
p60
g4
((lp61
S'/Users/zhanglistar/Code/quickcd/.git/refs'
p62
atp63
Rp64
sS'a1'
p65
g4
((lp66
S'/Users/zhanglistar/Code/quickcd/.git/objects'
p67
atp68
Rp69
sS'remotes'
p70
g4
((lp71
S'/Users/zhanglistar/Code/quickcd/.git/logs/refs'
p72
aS'/Users/zhanglistar/Code/quickcd/.git/refs'
p73
atp74
Rp75
sS'objects'
p76
g4
((lp77
S'/Users/zhanglistar/Code/quickcd/.git'
p78
atp79
Rp80
sS'72'
p81
g4
((lp82
S'/Users/zhanglistar/Code/quickcd/.git/objects'
p83
atp84
Rp85
sS'e6'
p86
g4
((lp87
S'/Users/zhanglistar/Code/quickcd/.git/objects'
p88
atp89
Rp90
sS'info'
p91
g4
((lp92
S'/Users/zhanglistar/Code/quickcd/.git/objects'
p93
aS'/Users/zhanglistar/Code/quickcd/.git'
p94
atp95
Rp96
sS'src'
p97
g4
((lp98
S'/Users/zhanglistar/Code/quickcd'
p99
atp100
Rp101
sS'.idea'
p102
g4
((lp103
S'/Users/zhanglistar/Code/quickcd'
p104
atp105
Rp106
sS'branches'
p107
g4
((lp108
S'/Users/zhanglistar/Code/quickcd/.git'
p109
atp110
Rp111
sS'32'
p112
g4
((lp113
S'/Users/zhanglistar/Code/quickcd/.git/objects'
p114
atp115
Rp116
sS'server'
p117
g4
((lp118
S'/Users/zhanglistar/Code/quickcd/src'
p119
atp120
Rp121
sS'client'
p122
g4
((lp123
S'/Users/zhanglistar/Code/quickcd/src'
p124
atp125
Rp126
sS'pack'
p127
g4
((lp128
S'/Users/zhanglistar/Code/quickcd/.git/objects'
p129
atp130
Rp131
ssb.